target datalayout = "e-m:e-p270:32:32-p271:32:32-p272:64:64-i64:64-i128:128-f80:128-n8:16:32:64-S128"
target triple = "x86_64-pc-linux-gnu"

; Function Attrs: mustprogress uwtable
define internal noundef zeroext i1 @_ZL19contains_north_poleP8PJconsts12PJ_DIRECTIONddddb(ptr noundef %0, i32 noundef %1, double noundef %2, double noundef %3, double noundef %4, double noundef %5, i1 noundef zeroext %6) #0 {
  %8 = alloca i1, align 1
  %9 = alloca ptr, align 8
  %10 = alloca i32, align 4
  %11 = alloca double, align 8
  %12 = alloca double, align 8
  %13 = alloca double, align 8
  %14 = alloca double, align 8
  %15 = alloca i8, align 1
  %16 = alloca double, align 8
  %17 = alloca double, align 8
  %18 = alloca i32, align 4
  store ptr %0, ptr %9, align 8, !tbaa !8
  store i32 %1, ptr %10, align 4, !tbaa !10
  store double %2, ptr %11, align 8, !tbaa !12
  store double %3, ptr %12, align 8, !tbaa !12
  store double %4, ptr %13, align 8, !tbaa !12
  store double %5, ptr %14, align 8, !tbaa !12
  %19 = zext i1 %6 to i8
  store i8 %19, ptr %15, align 1, !tbaa !21
  call void @llvm.lifetime.start.p0(i64 8, ptr %16) #15
  store double 9.000000e+01, ptr %16, align 8, !tbaa !12
  call void @llvm.lifetime.start.p0(i64 8, ptr %17) #15
  store double 0.000000e+00, ptr %17, align 8, !tbaa !12
  %20 = load i8, ptr %15, align 1, !tbaa !21, !range !23, !noundef !24
  %21 = trunc i8 %20 to i1
  br i1 %21, label %23, label %22

22:                                               ; preds = %7
  store double 0.000000e+00, ptr %16, align 8, !tbaa !12
  store double 9.000000e+01, ptr %17, align 8, !tbaa !12
  br label %23

23:                                               ; preds = %22, %7
  %24 = load ptr, ptr %9, align 8, !tbaa !8
  %25 = load i32, ptr %10, align 4, !tbaa !10
  %26 = call noundef i32 @_Z21pj_opposite_direction12PJ_DIRECTION(i32 noundef %25)
  %27 = call i64 @proj_trans_generic(ptr noundef %24, i32 noundef %26, ptr noundef %17, i64 noundef 8, i64 noundef 1, ptr noundef %16, i64 noundef 8, i64 noundef 1, ptr noundef null, i64 noundef 8, i64 noundef 0, ptr noundef null, i64 noundef 8, i64 noundef 0)
  %28 = load double, ptr %11, align 8, !tbaa !12
  %29 = load double, ptr %17, align 8, !tbaa !12
  %30 = fcmp olt double %28, %29
  br i1 %30, label %31, label %44

31:                                               ; preds = %23
  %32 = load double, ptr %17, align 8, !tbaa !12
  %33 = load double, ptr %13, align 8, !tbaa !12
  %34 = fcmp olt double %32, %33
  br i1 %34, label %35, label %44

35:                                               ; preds = %31
  %36 = load double, ptr %14, align 8, !tbaa !12
  %37 = load double, ptr %16, align 8, !tbaa !12
  %38 = fcmp ogt double %36, %37
  br i1 %38, label %39, label %44

39:                                               ; preds = %35
  %40 = load double, ptr %16, align 8, !tbaa !12
  %41 = load double, ptr %12, align 8, !tbaa !12
  %42 = fcmp ogt double %40, %41
  br i1 %42, label %43, label %44

43:                                               ; preds = %39
  store i1 true, ptr %8, align 1
  store i32 1, ptr %18, align 4
  br label %45

44:                                               ; preds = %39, %35, %31, %23
  store i1 false, ptr %8, align 1
  store i32 1, ptr %18, align 4
  br label %45

45:                                               ; preds = %44, %43
  call void @llvm.lifetime.end.p0(i64 8, ptr %17) #15
  call void @llvm.lifetime.end.p0(i64 8, ptr %16) #15
  %46 = load i1, ptr %8, align 1
  ret i1 %46
}